target datalayout = "e-m:e-p270:32:32-p271:32:32-p272:64:64-i64:64-i128:128-f80:128-n8:16:32:64-S128"
target triple = "x86_64-pc-linux-gnu"

; Function Attrs: mustprogress nounwind uwtable
define hidden noundef i64 @_ZN2os9lasterrorEPcm(ptr noundef %0, i64 noundef %1) #1 align 2 {
  %3 = alloca i64, align 8
  %4 = alloca ptr, align 8
  %5 = alloca i64, align 8
  %6 = alloca ptr, align 8
  %7 = alloca i64, align 8
  store ptr %0, ptr %4, align 8
  store i64 %1, ptr %5, align 8
  %8 = call ptr @__errno_location() #14
  %9 = load i32, ptr %8, align 4
  %10 = icmp eq i32 %9, 0
  br i1 %10, label %11, label %12

11:                                               ; preds = %2
  store i64 0, ptr %3, align 8
  br label %33

12:                                               ; preds = %2
  %13 = call ptr @__errno_location() #14
  %14 = load i32, ptr %13, align 4
  %15 = call noundef ptr @_ZN2os8strerrorEi(i32 noundef %14)
  store ptr %15, ptr %6, align 8
  %16 = load ptr, ptr %6, align 8
  %17 = call i64 @strlen(ptr noundef %16) #15
  store i64 %17, ptr %7, align 8
  %18 = load i64, ptr %7, align 8
  %19 = load i64, ptr %5, align 8
  %20 = icmp uge i64 %18, %19
  br i1 %20, label %21, label %24

21:                                               ; preds = %12
  %22 = load i64, ptr %5, align 8
  %23 = sub i64 %22, 1
  store i64 %23, ptr %7, align 8
  br label %24

24:                                               ; preds = %21, %12
  %25 = load ptr, ptr %4, align 8
  %26 = load ptr, ptr %6, align 8
  %27 = load i64, ptr %7, align 8
  %28 = call ptr @strncpy(ptr noundef %25, ptr noundef %26, i64 noundef %27) #7
  %29 = load ptr, ptr %4, align 8
  %30 = load i64, ptr %7, align 8
  %31 = getelementptr inbounds i8, ptr %29, i64 %30
  store i8 0, ptr %31, align 1
  %32 = load i64, ptr %7, align 8
  store i64 %32, ptr %3, align 8
  br label %33

33:                                               ; preds = %24, %11
  %34 = load i64, ptr %3, align 8
  ret i64 %34
}