; Function Attrs: mustprogress nounwind uwtable
define hidden noundef i64 @_ZN2os9lasterrorEPcm(ptr noundef %0, i64 noundef %1) local_unnamed_addr #1 align 2 {
  %3 = tail call ptr @__errno_location() #26
  %4 = load i32, ptr %3, align 4
  %5 = icmp eq i32 %4, 0
  br i1 %5, label %12, label %6

6:                                                ; preds = %2
  %7 = tail call noundef ptr @_ZN2os8strerrorEi(i32 noundef %4) #25
  %8 = tail call i64 @strlen(ptr noundef nonnull dereferenceable(1) %7) #27
  %.not = icmp ult i64 %8, %1
  %9 = add i64 %1, -1
  %spec.select = select i1 %.not, i64 %8, i64 %9
  %10 = tail call ptr @strncpy(ptr noundef %0, ptr noundef %7, i64 noundef %spec.select) #25
  %11 = getelementptr inbounds i8, ptr %0, i64 %spec.select
  store i8 0, ptr %11, align 1
  br label %12

12:                                               ; preds = %2, %6
  %.010 = phi i64 [ %spec.select, %6 ], [ 0, %2 ]
  ret i64 %.010
}